; Function Attrs: mustprogress null_pointer_is_valid sspstrong uwtable
define void @_ZN9UatDialog16modelRowsRemovedEv(ptr noundef readonly align 8 captures(none) dereferenceable_or_null(120) %0) local_unnamed_addr #0 align 2 {
  %2 = alloca %class.QModelIndex, align 8
  %3 = alloca %class.QModelIndex, align 8
  %4 = alloca %class.QModelIndex, align 8
  %5 = alloca %class.QModelIndex, align 8
  call void @llvm.lifetime.start.p0(i64 24, ptr nonnull %2) #21
  %6 = getelementptr inbounds nuw i8, ptr %0, i64 72
  %7 = load ptr, ptr %6, align 8
  %8 = getelementptr inbounds nuw i8, ptr %7, i64 8
  %9 = load ptr, ptr %8, align 8
  call void @_ZNK17QAbstractItemView12currentIndexEv(ptr dead_on_unwind nonnull writable sret(%class.QModelIndex) align 8 %2, ptr noundef align 8 dereferenceable_or_null(40) %9)
  %10 = load i32, ptr %2, align 8
  %11 = icmp sgt i32 %10, -1
  %12 = getelementptr inbounds nuw i8, ptr %2, i64 4
  %13 = load i32, ptr %12, align 4
  %14 = icmp sgt i32 %13, -1
  %or.cond = select i1 %11, i1 %14, i1 false
  %15 = getelementptr inbounds nuw i8, ptr %2, i64 16
  %16 = load ptr, ptr %15, align 8
  %17 = icmp ne ptr %16, null
  %or.cond9 = select i1 %or.cond, i1 %17, i1 false
  %18 = load ptr, ptr %6, align 8
  %19 = getelementptr inbounds nuw i8, ptr %18, i64 56
  %20 = load ptr, ptr %19, align 8
  br i1 %or.cond9, label %21, label %_ZNK11QModelIndex7isValidEv.exit.thread

21:                                               ; preds = %1
  %22 = icmp ne i32 %10, 0
  call void @_ZN7QWidget10setEnabledEb(ptr noundef align 8 dereferenceable_or_null(40) %20, i1 noundef zeroext %22)
  %23 = load ptr, ptr %6, align 8
  %24 = getelementptr inbounds nuw i8, ptr %23, i64 64
  %25 = load ptr, ptr %24, align 8
  %26 = load i32, ptr %2, align 8
  %27 = getelementptr inbounds nuw i8, ptr %0, i64 80
  %28 = load ptr, ptr %27, align 8
  call void @llvm.lifetime.start.p0(i64 24, ptr nonnull %3) #21
  store i32 -1, ptr %3, align 8
  %29 = getelementptr inbounds nuw i8, ptr %3, i64 4
  store i32 -1, ptr %29, align 4
  %30 = getelementptr inbounds nuw i8, ptr %3, i64 8
  call void @llvm.memset.p0.i64(ptr noundef nonnull align 8 dereferenceable(16) %30, i8 0, i64 16, i1 false)
  %31 = load ptr, ptr %28, align 8
  %32 = getelementptr inbounds nuw i8, ptr %31, i64 120
  %33 = load ptr, ptr %32, align 8
  %34 = call noundef i32 %33(ptr noundef align 8 dereferenceable_or_null(80) %28, ptr noundef nonnull align 8 dereferenceable(24) %3)
  %35 = add i32 %34, -1
  %36 = icmp ne i32 %26, %35
  call void @_ZN7QWidget10setEnabledEb(ptr noundef align 8 dereferenceable_or_null(40) %25, i1 noundef zeroext %36)
  call void @llvm.lifetime.end.p0(i64 24, ptr nonnull %3) #21
  br label %40

_ZNK11QModelIndex7isValidEv.exit.thread:          ; preds = %1
  call void @_ZN7QWidget10setEnabledEb(ptr noundef align 8 dereferenceable_or_null(40) %20, i1 noundef zeroext false)
  %37 = load ptr, ptr %6, align 8
  %38 = getelementptr inbounds nuw i8, ptr %37, i64 64
  %39 = load ptr, ptr %38, align 8
  call void @_ZN7QWidget10setEnabledEb(ptr noundef align 8 dereferenceable_or_null(40) %39, i1 noundef zeroext false)
  br label %40

40:                                               ; preds = %_ZNK11QModelIndex7isValidEv.exit.thread, %21
  %41 = load ptr, ptr %6, align 8
  %42 = getelementptr inbounds nuw i8, ptr %41, i64 72
  %43 = load ptr, ptr %42, align 8
  %44 = getelementptr inbounds nuw i8, ptr %0, i64 80
  %45 = load ptr, ptr %44, align 8
  call void @llvm.lifetime.start.p0(i64 24, ptr nonnull %4) #21
  store i32 -1, ptr %4, align 8
  %46 = getelementptr inbounds nuw i8, ptr %4, i64 4
  store i32 -1, ptr %46, align 4
  %47 = getelementptr inbounds nuw i8, ptr %4, i64 8
  call void @llvm.memset.p0.i64(ptr noundef nonnull align 8 dereferenceable(16) %47, i8 0, i64 16, i1 false)
  %48 = load ptr, ptr %45, align 8
  %49 = getelementptr inbounds nuw i8, ptr %48, i64 120
  %50 = load ptr, ptr %49, align 8
  %51 = call noundef i32 %50(ptr noundef align 8 dereferenceable_or_null(80) %45, ptr noundef nonnull align 8 dereferenceable(24) %4)
  %52 = icmp ne i32 %51, 0
  call void @_ZN7QWidget10setEnabledEb(ptr noundef align 8 dereferenceable_or_null(40) %43, i1 noundef zeroext %52)
  call void @llvm.lifetime.end.p0(i64 24, ptr nonnull %4) #21
  call void @llvm.lifetime.start.p0(i64 24, ptr nonnull %5) #21
  store i32 -1, ptr %5, align 8
  %53 = getelementptr inbounds nuw i8, ptr %5, i64 4
  store i32 -1, ptr %53, align 4
  %54 = getelementptr inbounds nuw i8, ptr %5, i64 8
  call void @llvm.memset.p0.i64(ptr noundef nonnull align 8 dereferenceable(16) %54, i8 0, i64 16, i1 false)
  call void @_ZN9UatDialog17checkForErrorHintERK11QModelIndexS2_(ptr noundef align 8 dereferenceable_or_null(120) %0, ptr noundef nonnull align 8 dereferenceable(24) %2, ptr noundef nonnull align 8 dereferenceable(24) %5)
  call void @llvm.lifetime.end.p0(i64 24, ptr nonnull %5) #21
  %55 = getelementptr inbounds nuw i8, ptr %0, i64 96
  %56 = load ptr, ptr %55, align 8
  %57 = load ptr, ptr %44, align 8
  %58 = call noundef zeroext i1 @_ZNK8UatModel9hasErrorsEv(ptr noundef align 8 dereferenceable_or_null(80) %57)
  %59 = xor i1 %58, true
  call void @_ZN7QWidget10setEnabledEb(ptr noundef align 8 dereferenceable_or_null(40) %56, i1 noundef zeroext %59)
  call void @llvm.lifetime.end.p0(i64 24, ptr nonnull %2) #21
  ret void
}